target datalayout = "e-m:e-p270:32:32-p271:32:32-p272:64:64-i64:64-i128:128-f80:128-n8:16:32:64-S128"
target triple = "x86_64-pc-linux-gnu"

%struct._zend_executor_globals = type { %struct._zval_struct, %struct._zval_struct, [32 x ptr], ptr, ptr, %struct._zend_array, %struct._zend_array, ptr, i32, i32, ptr, ptr, ptr, ptr, ptr, ptr, i64, ptr, ptr, i32, i32, i64, i32, i32, i32, i8, i8, %struct.zend_atomic_bool_s, %struct.zend_atomic_bool_s, ptr, i64, ptr, ptr, %struct._zend_array, %struct._zend_array, i32, i8, %struct._zval_struct, %struct._zval_struct, %struct._zend_stack, %struct._zend_stack, %struct._zend_stack, ptr, i32, i32, i64, ptr, ptr, ptr, %struct._zend_objects_store, ptr, ptr, ptr, [3 x %struct._zend_op], ptr, i8, i8, i64, i32, i32, ptr, [16 x %struct._HashTableIterator], ptr, %union._zend_function, %struct._zend_op, %struct._zend_array, i64, %struct.zend_get_gc_buffer, ptr, ptr, ptr, i64, i8, i32, ptr, ptr, i64, %struct._zend_call_stack, i64, i64, [6 x ptr] }
%struct.zend_atomic_bool_s = type { i8 }
%struct._zval_struct = type { %union._zend_value, %union.anon, %union.anon.2 }
%union._zend_value = type { i64 }
%union.anon = type { i32 }
%union.anon.2 = type { i32 }
%struct._zend_stack = type { i32, i32, i32, ptr }
%struct._zend_objects_store = type { ptr, i32, i32, i32 }
%struct._HashTableIterator = type { ptr, i32, i32 }
%union._zend_function = type { %struct._zend_op_array }
%struct._zend_op_array = type { i8, [3 x i8], i32, ptr, ptr, ptr, i32, i32, ptr, ptr, ptr, ptr, i32, i32, i32, i32, ptr, ptr, ptr, ptr, ptr, i32, i32, ptr, ptr, ptr, i32, i32, i32, i32, ptr, ptr, [6 x ptr] }
%struct._zend_op = type { ptr, %union._znode_op, %union._znode_op, %union._znode_op, i32, i32, i8, i8, i8, i8 }
%union._znode_op = type { i32 }
%struct._zend_array = type { %struct._zend_refcounted_h, %union.anon.4, i32, %union.anon.6, i32, i32, i32, i32, i64, ptr }
%struct._zend_refcounted_h = type { i32, %union.anon.3 }
%union.anon.3 = type { i32 }
%union.anon.4 = type { i32 }
%union.anon.6 = type { ptr }
%struct.zend_get_gc_buffer = type { ptr, ptr, ptr }
%struct._zend_call_stack = type { ptr, i64 }
%struct._zend_execute_data = type { ptr, ptr, ptr, ptr, %struct._zval_struct, ptr, ptr, ptr, ptr }
%struct._spl_fixedarray_object = type { %struct._spl_fixedarray, ptr, %struct._zend_object }
%struct._spl_fixedarray = type { i64, ptr, i64 }
%struct._zend_object = type { %struct._zend_refcounted_h, i32, ptr, ptr, ptr, [1 x %struct._zval_struct] }
%struct.anon.0 = type { i8, i8, %union.anon.1 }
%union.anon.1 = type { i16 }
%struct._Bucket = type { %struct._zval_struct, i64, ptr }

@executor_globals = external global %struct._zend_executor_globals, align 8

; Function Attrs: nounwind uwtable
define internal ptr @spl_fixed_array_from_obj(ptr noundef %0) #0 {
  %2 = alloca ptr, align 8
  store ptr %0, ptr %2, align 8
  %3 = load ptr, ptr %2, align 8
  %4 = getelementptr inbounds i8, ptr %3, i64 -32
  ret ptr %4
}

; Function Attrs: nounwind uwtable
define hidden void @zim_SplFixedArray___serialize(ptr noundef %0, ptr noundef %1) #0 {
  %3 = alloca ptr, align 8
  %4 = alloca ptr, align 8
  %5 = alloca ptr, align 8
  %6 = alloca ptr, align 8
  %7 = alloca ptr, align 8
  %8 = alloca ptr, align 8
  %9 = alloca ptr, align 8
  %10 = alloca ptr, align 8
  %11 = alloca ptr, align 8
  %12 = alloca ptr, align 8
  %13 = alloca ptr, align 8
  %14 = alloca ptr, align 8
  %15 = alloca ptr, align 8
  %16 = alloca i32, align 4
  %17 = alloca ptr, align 8
  %18 = alloca ptr, align 8
  %19 = alloca i64, align 8
  %20 = alloca ptr, align 8
  %21 = alloca i64, align 8
  %22 = alloca ptr, align 8
  %23 = alloca i32, align 4
  %24 = alloca i64, align 8
  %25 = alloca ptr, align 8
  %26 = alloca i32, align 4
  %27 = alloca ptr, align 8
  %28 = alloca ptr, align 8
  store ptr %0, ptr %10, align 8
  store ptr %1, ptr %11, align 8
  %29 = load ptr, ptr %10, align 8
  %30 = getelementptr inbounds %struct._zend_execute_data, ptr %29, i32 0, i32 4
  %31 = getelementptr inbounds %struct._zval_struct, ptr %30, i32 0, i32 0
  %32 = load ptr, ptr %31, align 8
  %33 = call ptr @spl_fixed_array_from_obj(ptr noundef %32)
  store ptr %33, ptr %12, align 8
  %34 = load ptr, ptr %10, align 8
  %35 = getelementptr inbounds %struct._zend_execute_data, ptr %34, i32 0, i32 4
  %36 = getelementptr inbounds %struct._zval_struct, ptr %35, i32 0, i32 2
  %37 = load i32, ptr %36, align 4
  %38 = icmp eq i32 %37, 0
  %39 = xor i1 %38, true
  %40 = xor i1 %39, true
  %41 = zext i1 %40 to i32
  %42 = sext i32 %41 to i64
  %43 = icmp ne i64 %42, 0
  br i1 %43, label %44, label %45

44:                                               ; preds = %2
  br label %46

45:                                               ; preds = %2
  call void @zend_wrong_parameters_none_error()
  br label %46

46:                                               ; preds = %45, %44
  %47 = phi i32 [ 0, %44 ], [ -1, %45 ]
  %48 = icmp eq i32 %47, -1
  br i1 %48, label %49, label %54

49:                                               ; preds = %46
  br label %50

50:                                               ; preds = %49
  %51 = load ptr, ptr getelementptr inbounds (%struct._zend_executor_globals, ptr @executor_globals, i32 0, i32 50), align 8
  %52 = icmp ne ptr %51, null
  call void @llvm.assume(i1 %52)
  br label %273

53:                                               ; No predecessors!
  br label %54

54:                                               ; preds = %53, %46
  %55 = load ptr, ptr %12, align 8
  %56 = getelementptr inbounds %struct._spl_fixedarray_object, ptr %55, i32 0, i32 2
  %57 = call ptr @zend_std_get_properties(ptr noundef %56)
  store ptr %57, ptr %15, align 8
  %58 = load ptr, ptr %15, align 8
  store ptr %58, ptr %9, align 8
  %59 = load ptr, ptr %9, align 8
  %60 = getelementptr inbounds %struct._zend_array, ptr %59, i32 0, i32 5
  %61 = load i32, ptr %60, align 4
  store i32 %61, ptr %16, align 4
  br label %62

62:                                               ; preds = %54
  %63 = load ptr, ptr %12, align 8
  %64 = getelementptr inbounds %struct._spl_fixedarray_object, ptr %63, i32 0, i32 0
  %65 = getelementptr inbounds %struct._spl_fixedarray, ptr %64, i32 0, i32 0
  %66 = load i64, ptr %65, align 8
  %67 = load i32, ptr %16, align 4
  %68 = zext i32 %67 to i64
  %69 = add nsw i64 %66, %68
  %70 = call i1 @llvm.is.constant.i64(i64 %69)
  br i1 %70, label %71, label %95

71:                                               ; preds = %62
  %72 = load ptr, ptr %12, align 8
  %73 = getelementptr inbounds %struct._spl_fixedarray_object, ptr %72, i32 0, i32 0
  %74 = getelementptr inbounds %struct._spl_fixedarray, ptr %73, i32 0, i32 0
  %75 = load i64, ptr %74, align 8
  %76 = load i32, ptr %16, align 4
  %77 = zext i32 %76 to i64
  %78 = add nsw i64 %75, %77
  %79 = trunc i64 %78 to i32
  %80 = icmp ule i32 %79, 8
  br i1 %80, label %81, label %83

81:                                               ; preds = %71
  %82 = call ptr @_zend_new_array_0()
  br label %93

83:                                               ; preds = %71
  %84 = load ptr, ptr %12, align 8
  %85 = getelementptr inbounds %struct._spl_fixedarray_object, ptr %84, i32 0, i32 0
  %86 = getelementptr inbounds %struct._spl_fixedarray, ptr %85, i32 0, i32 0
  %87 = load i64, ptr %86, align 8
  %88 = load i32, ptr %16, align 4
  %89 = zext i32 %88 to i64
  %90 = add nsw i64 %87, %89
  %91 = trunc i64 %90 to i32
  %92 = call ptr @_zend_new_array(i32 noundef %91)
  br label %93

93:                                               ; preds = %83, %81
  %94 = phi ptr [ %82, %81 ], [ %92, %83 ]
  br label %105

95:                                               ; preds = %62
  %96 = load ptr, ptr %12, align 8
  %97 = getelementptr inbounds %struct._spl_fixedarray_object, ptr %96, i32 0, i32 0
  %98 = getelementptr inbounds %struct._spl_fixedarray, ptr %97, i32 0, i32 0
  %99 = load i64, ptr %98, align 8
  %100 = load i32, ptr %16, align 4
  %101 = zext i32 %100 to i64
  %102 = add nsw i64 %99, %101
  %103 = trunc i64 %102 to i32
  %104 = call ptr @_zend_new_array(i32 noundef %103)
  br label %105

105:                                              ; preds = %95, %93
  %106 = phi ptr [ %94, %93 ], [ %104, %95 ]
  store ptr %106, ptr %17, align 8
  %107 = load ptr, ptr %11, align 8
  store ptr %107, ptr %18, align 8
  %108 = load ptr, ptr %17, align 8
  %109 = load ptr, ptr %18, align 8
  %110 = getelementptr inbounds %struct._zval_struct, ptr %109, i32 0, i32 0
  store ptr %108, ptr %110, align 8
  %111 = load ptr, ptr %18, align 8
  %112 = getelementptr inbounds %struct._zval_struct, ptr %111, i32 0, i32 1
  store i32 775, ptr %112, align 8
  br label %113

113:                                              ; preds = %105
  store i64 0, ptr %19, align 8
  br label %114

114:                                              ; preds = %155, %113
  %115 = load i64, ptr %19, align 8
  %116 = load ptr, ptr %12, align 8
  %117 = getelementptr inbounds %struct._spl_fixedarray_object, ptr %116, i32 0, i32 0
  %118 = getelementptr inbounds %struct._spl_fixedarray, ptr %117, i32 0, i32 0
  %119 = load i64, ptr %118, align 8
  %120 = icmp slt i64 %115, %119
  br i1 %120, label %121, label %158

121:                                              ; preds = %114
  %122 = load ptr, ptr %12, align 8
  %123 = getelementptr inbounds %struct._spl_fixedarray_object, ptr %122, i32 0, i32 0
  %124 = getelementptr inbounds %struct._spl_fixedarray, ptr %123, i32 0, i32 1
  %125 = load ptr, ptr %124, align 8
  %126 = load i64, ptr %19, align 8
  %127 = getelementptr inbounds %struct._zval_struct, ptr %125, i64 %126
  store ptr %127, ptr %13, align 8
  %128 = load ptr, ptr %11, align 8
  %129 = getelementptr inbounds %struct._zval_struct, ptr %128, i32 0, i32 0
  %130 = load ptr, ptr %129, align 8
  %131 = load ptr, ptr %13, align 8
  %132 = call ptr @zend_hash_next_index_insert(ptr noundef %130, ptr noundef %131)
  br label %133

133:                                              ; preds = %121
  %134 = load ptr, ptr %13, align 8
  %135 = getelementptr inbounds %struct._zval_struct, ptr %134, i32 0, i32 1
  %136 = getelementptr inbounds %struct.anon.0, ptr %135, i32 0, i32 1
  %137 = load i8, ptr %136, align 1
  %138 = zext i8 %137 to i32
  %139 = icmp ne i32 %138, 0
  br i1 %139, label %140, label %153

140:                                              ; preds = %133
  %141 = load ptr, ptr %13, align 8
  store ptr %141, ptr %4, align 8
  %142 = load ptr, ptr %4, align 8
  %143 = getelementptr inbounds %struct._zval_struct, ptr %142, i32 0, i32 1
  %144 = getelementptr inbounds %struct.anon.0, ptr %143, i32 0, i32 1
  %145 = load i8, ptr %144, align 1
  %146 = zext i8 %145 to i32
  %147 = icmp ne i32 %146, 0
  call void @llvm.assume(i1 %147)
  %148 = load ptr, ptr %4, align 8
  %149 = load ptr, ptr %148, align 8
  store ptr %149, ptr %3, align 8
  %150 = load ptr, ptr %3, align 8
  %151 = load i32, ptr %150, align 4
  %152 = add i32 %151, 1
  store i32 %152, ptr %150, align 4
  br label %153

153:                                              ; preds = %140, %133
  br label %154

154:                                              ; preds = %153
  br label %155

155:                                              ; preds = %154
  %156 = load i64, ptr %19, align 8
  %157 = add nsw i64 %156, 1
  store i64 %157, ptr %19, align 8
  br label %114

158:                                              ; preds = %114
  br label %159

159:                                              ; preds = %158
  %160 = load ptr, ptr %15, align 8
  store ptr %160, ptr %20, align 8
  store ptr null, ptr %22, align 8
  store i32 0, ptr %23, align 4
  %161 = load ptr, ptr %20, align 8
  %162 = getelementptr inbounds %struct._zend_array, ptr %161, i32 0, i32 1
  %163 = load i32, ptr %162, align 8
  %164 = xor i32 %163, -1
  %165 = and i32 %164, 4
  %166 = zext i32 %165 to i64
  %167 = mul i64 %166, 4
  %168 = add i64 16, %167
  store i64 %168, ptr %24, align 8
  %169 = load ptr, ptr %20, align 8
  %170 = getelementptr inbounds %struct._zend_array, ptr %169, i32 0, i32 3
  %171 = load ptr, ptr %170, align 8
  %172 = load i32, ptr %23, align 4
  %173 = zext i32 %172 to i64
  %174 = load i64, ptr %24, align 8
  %175 = mul i64 %173, %174
  %176 = getelementptr inbounds i8, ptr %171, i64 %175
  store ptr %176, ptr %25, align 8
  %177 = load ptr, ptr %20, align 8
  %178 = getelementptr inbounds %struct._zend_array, ptr %177, i32 0, i32 4
  %179 = load i32, ptr %178, align 8
  %180 = load i32, ptr %23, align 4
  %181 = sub i32 %179, %180
  store i32 %181, ptr %26, align 4
  br label %182

182:                                              ; preds = %269, %159
  %183 = load i32, ptr %26, align 4
  %184 = icmp ugt i32 %183, 0
  br i1 %184, label %185, label %272

185:                                              ; preds = %182
  %186 = load ptr, ptr %25, align 8
  store ptr %186, ptr %27, align 8
  %187 = load ptr, ptr %20, align 8
  %188 = getelementptr inbounds %struct._zend_array, ptr %187, i32 0, i32 1
  %189 = load i32, ptr %188, align 8
  %190 = and i32 %189, 4
  %191 = icmp ne i32 %190, 0
  br i1 %191, label %192, label %199

192:                                              ; preds = %185
  %193 = load ptr, ptr %25, align 8
  %194 = getelementptr inbounds %struct._zval_struct, ptr %193, i32 1
  store ptr %194, ptr %25, align 8
  %195 = load i32, ptr %23, align 4
  %196 = zext i32 %195 to i64
  store i64 %196, ptr %21, align 8
  %197 = load i32, ptr %23, align 4
  %198 = add i32 %197, 1
  store i32 %198, ptr %23, align 4
  br label %221

199:                                              ; preds = %185
  %200 = load ptr, ptr %25, align 8
  store ptr %200, ptr %28, align 8
  %201 = load ptr, ptr %28, align 8
  %202 = getelementptr inbounds %struct._Bucket, ptr %201, i64 1
  %203 = getelementptr inbounds %struct._Bucket, ptr %202, i32 0, i32 0
  store ptr %203, ptr %25, align 8
  %204 = load ptr, ptr %28, align 8
  %205 = getelementptr inbounds %struct._Bucket, ptr %204, i32 0, i32 1
  %206 = load i64, ptr %205, align 8
  store i64 %206, ptr %21, align 8
  %207 = load ptr, ptr %28, align 8
  %208 = getelementptr inbounds %struct._Bucket, ptr %207, i32 0, i32 2
  %209 = load ptr, ptr %208, align 8
  store ptr %209, ptr %22, align 8
  %210 = load ptr, ptr %27, align 8
  store ptr %210, ptr %7, align 8
  %211 = load ptr, ptr %7, align 8
  %212 = getelementptr inbounds %struct._zval_struct, ptr %211, i32 0, i32 1
  %213 = load i8, ptr %212, align 8
  %214 = zext i8 %213 to i32
  %215 = icmp eq i32 %214, 12
  br i1 %215, label %216, label %220

216:                                              ; preds = %199
  %217 = load ptr, ptr %27, align 8
  %218 = getelementptr inbounds %struct._zval_struct, ptr %217, i32 0, i32 0
  %219 = load ptr, ptr %218, align 8
  store ptr %219, ptr %27, align 8
  br label %220

220:                                              ; preds = %216, %199
  br label %221

221:                                              ; preds = %220, %192
  %222 = load ptr, ptr %27, align 8
  store ptr %222, ptr %8, align 8
  %223 = load ptr, ptr %8, align 8
  %224 = getelementptr inbounds %struct._zval_struct, ptr %223, i32 0, i32 1
  %225 = load i8, ptr %224, align 8
  %226 = zext i8 %225 to i32
  %227 = icmp eq i32 %226, 0
  %228 = xor i1 %227, true
  %229 = xor i1 %228, true
  %230 = zext i1 %229 to i32
  %231 = sext i32 %230 to i64
  %232 = icmp ne i64 %231, 0
  br i1 %232, label %233, label %234

233:                                              ; preds = %221
  br label %269

234:                                              ; preds = %221
  %235 = load ptr, ptr %22, align 8
  store ptr %235, ptr %14, align 8
  %236 = load ptr, ptr %27, align 8
  store ptr %236, ptr %13, align 8
  %237 = load ptr, ptr %14, align 8
  %238 = icmp ne ptr %237, null
  br i1 %238, label %239, label %268

239:                                              ; preds = %234
  %240 = load ptr, ptr %11, align 8
  %241 = getelementptr inbounds %struct._zval_struct, ptr %240, i32 0, i32 0
  %242 = load ptr, ptr %241, align 8
  %243 = load ptr, ptr %14, align 8
  %244 = load ptr, ptr %13, align 8
  %245 = call ptr @zend_hash_add_new(ptr noundef %242, ptr noundef %243, ptr noundef %244)
  br label %246

246:                                              ; preds = %239
  %247 = load ptr, ptr %13, align 8
  %248 = getelementptr inbounds %struct._zval_struct, ptr %247, i32 0, i32 1
  %249 = getelementptr inbounds %struct.anon.0, ptr %248, i32 0, i32 1
  %250 = load i8, ptr %249, align 1
  %251 = zext i8 %250 to i32
  %252 = icmp ne i32 %251, 0
  br i1 %252, label %253, label %266

253:                                              ; preds = %246
  %254 = load ptr, ptr %13, align 8
  store ptr %254, ptr %6, align 8
  %255 = load ptr, ptr %6, align 8
  %256 = getelementptr inbounds %struct._zval_struct, ptr %255, i32 0, i32 1
  %257 = getelementptr inbounds %struct.anon.0, ptr %256, i32 0, i32 1
  %258 = load i8, ptr %257, align 1
  %259 = zext i8 %258 to i32
  %260 = icmp ne i32 %259, 0
  call void @llvm.assume(i1 %260)
  %261 = load ptr, ptr %6, align 8
  %262 = load ptr, ptr %261, align 8
  store ptr %262, ptr %5, align 8
  %263 = load ptr, ptr %5, align 8
  %264 = load i32, ptr %263, align 4
  %265 = add i32 %264, 1
  store i32 %265, ptr %263, align 4
  br label %266

266:                                              ; preds = %253, %246
  br label %267

267:                                              ; preds = %266
  br label %268

268:                                              ; preds = %267, %234
  br label %269

269:                                              ; preds = %268, %233
  %270 = load i32, ptr %26, align 4
  %271 = add i32 %270, -1
  store i32 %271, ptr %26, align 4
  br label %182

272:                                              ; preds = %182
  br label %273

273:                                              ; preds = %272, %50
  ret void
}