; Function Attrs: nounwind uwtable
define hidden void @zim_SplFixedArray___serialize(ptr nocapture noundef readonly %0, ptr nocapture noundef %1) #0 {
  %3 = getelementptr inbounds i8, ptr %0, i64 32
  %4 = load ptr, ptr %3, align 8
  %5 = getelementptr inbounds i8, ptr %4, i64 -32
  %6 = getelementptr inbounds i8, ptr %0, i64 44
  %7 = load i32, ptr %6, align 4
  %.not = icmp eq i32 %7, 0
  br i1 %.not, label %.critedge, label %8

8:                                                ; preds = %2
  tail call void @zend_wrong_parameters_none_error() #12
  %9 = load ptr, ptr getelementptr inbounds (%struct._zend_executor_globals, ptr @executor_globals, i64 0, i32 50), align 8
  %10 = icmp ne ptr %9, null
  tail call void @llvm.assume(i1 %10)
  br label %.loopexit

.critedge:                                        ; preds = %2
  %11 = tail call ptr @zend_std_get_properties(ptr noundef nonnull %4) #12
  %12 = getelementptr inbounds i8, ptr %11, i64 28
  %13 = load i32, ptr %12, align 4
  %14 = load i64, ptr %5, align 8
  %15 = trunc i64 %14 to i32
  %16 = add i32 %13, %15
  %17 = tail call ptr @_zend_new_array(i32 noundef %16) #12
  store ptr %17, ptr %1, align 8
  %18 = getelementptr inbounds i8, ptr %1, i64 8
  store i32 775, ptr %18, align 8
  %19 = load i64, ptr %5, align 8
  %20 = icmp sgt i64 %19, 0
  br i1 %20, label %.lr.ph, label %._crit_edge

.lr.ph:                                           ; preds = %.critedge
  %21 = getelementptr inbounds i8, ptr %4, i64 -24
  br label %22

22:                                               ; preds = %.lr.ph, %33
  %.06475 = phi i64 [ 0, %.lr.ph ], [ %34, %33 ]
  %23 = load ptr, ptr %21, align 8
  %24 = getelementptr inbounds %struct._zval_struct, ptr %23, i64 %.06475
  %25 = load ptr, ptr %1, align 8
  %26 = tail call ptr @zend_hash_next_index_insert(ptr noundef %25, ptr noundef %24) #12
  %27 = getelementptr inbounds i8, ptr %24, i64 9
  %28 = load i8, ptr %27, align 1
  %.not74 = icmp eq i8 %28, 0
  br i1 %.not74, label %33, label %29

29:                                               ; preds = %22
  %30 = load ptr, ptr %24, align 8
  %31 = load i32, ptr %30, align 4
  %32 = add i32 %31, 1
  store i32 %32, ptr %30, align 4
  br label %33

33:                                               ; preds = %29, %22
  %34 = add nuw nsw i64 %.06475, 1
  %35 = load i64, ptr %5, align 8
  %36 = icmp slt i64 %34, %35
  br i1 %36, label %22, label %._crit_edge

._crit_edge:                                      ; preds = %33, %.critedge
  %37 = getelementptr inbounds i8, ptr %11, i64 8
  %38 = getelementptr inbounds i8, ptr %11, i64 24
  %39 = load i32, ptr %38, align 8
  %.not7076 = icmp eq i32 %39, 0
  br i1 %.not7076, label %.loopexit, label %.lr.ph82.preheader

.lr.ph82.preheader:                               ; preds = %._crit_edge
  %40 = getelementptr inbounds i8, ptr %11, i64 16
  %41 = load ptr, ptr %40, align 8
  br label %.lr.ph82

.lr.ph82:                                         ; preds = %.lr.ph82.preheader, %68
  %.06280 = phi i32 [ %69, %68 ], [ %39, %.lr.ph82.preheader ]
  %.06379 = phi ptr [ %.1, %68 ], [ %41, %.lr.ph82.preheader ]
  %.06777 = phi ptr [ %.168, %68 ], [ null, %.lr.ph82.preheader ]
  %42 = load i32, ptr %37, align 8
  %43 = and i32 %42, 4
  %.not71 = icmp eq i32 %43, 0
  br i1 %.not71, label %46, label %44

44:                                               ; preds = %.lr.ph82
  %45 = getelementptr inbounds i8, ptr %.06379, i64 16
  br label %55

46:                                               ; preds = %.lr.ph82
  %47 = getelementptr inbounds i8, ptr %.06379, i64 32
  %48 = getelementptr inbounds i8, ptr %.06379, i64 24
  %49 = load ptr, ptr %48, align 8
  %50 = getelementptr inbounds i8, ptr %.06379, i64 8
  %51 = load i8, ptr %50, align 8
  %52 = icmp eq i8 %51, 12
  br i1 %52, label %53, label %55

53:                                               ; preds = %46
  %54 = load ptr, ptr %.06379, align 8
  br label %55

55:                                               ; preds = %46, %53, %44
  %.168 = phi ptr [ %.06777, %44 ], [ %49, %53 ], [ %49, %46 ]
  %.1 = phi ptr [ %45, %44 ], [ %47, %53 ], [ %47, %46 ]
  %.0 = phi ptr [ %.06379, %44 ], [ %54, %53 ], [ %.06379, %46 ]
  %56 = getelementptr inbounds i8, ptr %.0, i64 8
  %57 = load i8, ptr %56, align 8
  %58 = icmp eq i8 %57, 0
  %.not72 = icmp eq ptr %.168, null
  %or.cond = select i1 %58, i1 true, i1 %.not72
  br i1 %or.cond, label %68, label %59

59:                                               ; preds = %55
  %60 = load ptr, ptr %1, align 8
  %61 = tail call ptr @zend_hash_add_new(ptr noundef %60, ptr noundef nonnull %.168, ptr noundef nonnull %.0) #12
  %62 = getelementptr inbounds i8, ptr %.0, i64 9
  %63 = load i8, ptr %62, align 1
  %.not73 = icmp eq i8 %63, 0
  br i1 %.not73, label %68, label %64

64:                                               ; preds = %59
  %65 = load ptr, ptr %.0, align 8
  %66 = load i32, ptr %65, align 4
  %67 = add i32 %66, 1
  store i32 %67, ptr %65, align 4
  br label %68

68:                                               ; preds = %59, %64, %55
  %69 = add i32 %.06280, -1
  %.not70 = icmp eq i32 %69, 0
  br i1 %.not70, label %.loopexit, label %.lr.ph82

.loopexit:                                        ; preds = %68, %._crit_edge, %8
  ret void
}